target datalayout = "e-m:e-p270:32:32-p271:32:32-p272:64:64-i64:64-i128:128-f80:128-n8:16:32:64-S128"
target triple = "x86_64-pc-linux-gnu"

%struct.slurmdb_user_rec = type { i16, ptr, ptr, ptr, ptr, ptr, i32, ptr, ptr, i32, ptr }

@.str = private unnamed_addr constant [46 x i8] c"couldn't get information for this user %s(%d)\00", align 1

; Function Attrs: nounwind uwtable
define dso_local zeroext i1 @_is_user_any_coord_internal(ptr noundef %0, ptr noundef %1, i1 noundef zeroext %2) #0 {
  %4 = alloca i1, align 1
  %5 = alloca ptr, align 8
  %6 = alloca ptr, align 8
  %7 = alloca i8, align 1
  store ptr %0, ptr %5, align 8
  store ptr %1, ptr %6, align 8
  %8 = zext i1 %2 to i8
  store i8 %8, ptr %7, align 1
  %9 = load ptr, ptr %5, align 8
  %10 = load ptr, ptr %6, align 8
  %11 = load i8, ptr %7, align 1, !range !8, !noundef !9
  %12 = trunc i8 %11 to i1
  %13 = call i32 @assoc_mgr_fill_in_user(ptr noundef %9, ptr noundef %10, i32 noundef 1, ptr noundef null, i1 noundef zeroext %12)
  %14 = icmp ne i32 %13, 0
  br i1 %14, label %15, label %23

15:                                               ; preds = %3
  %16 = load ptr, ptr %6, align 8
  %17 = getelementptr inbounds nuw %struct.slurmdb_user_rec, ptr %16, i32 0, i32 7
  %18 = load ptr, ptr %17, align 8
  %19 = load ptr, ptr %6, align 8
  %20 = getelementptr inbounds nuw %struct.slurmdb_user_rec, ptr %19, i32 0, i32 9
  %21 = load i32, ptr %20, align 8
  %22 = call i32 (ptr, ...) @slurm_error(ptr noundef @.str, ptr noundef %18, i32 noundef %21)
  store i1 false, ptr %4, align 1
  br label %36

23:                                               ; preds = %3
  %24 = load ptr, ptr %6, align 8
  %25 = getelementptr inbounds nuw %struct.slurmdb_user_rec, ptr %24, i32 0, i32 3
  %26 = load ptr, ptr %25, align 8
  %27 = icmp ne ptr %26, null
  br i1 %27, label %28, label %34

28:                                               ; preds = %23
  %29 = load ptr, ptr %6, align 8
  %30 = getelementptr inbounds nuw %struct.slurmdb_user_rec, ptr %29, i32 0, i32 3
  %31 = load ptr, ptr %30, align 8
  %32 = call i32 @slurm_list_count(ptr noundef %31)
  %33 = icmp ne i32 %32, 0
  br label %34

34:                                               ; preds = %28, %23
  %35 = phi i1 [ false, %23 ], [ %33, %28 ]
  store i1 %35, ptr %4, align 1
  br label %36

36:                                               ; preds = %34, %15
  %37 = load i1, ptr %4, align 1
  ret i1 %37
}

; Function Attrs: nounwind uwtable
define dso_local zeroext i1 @is_user_any_coord_locked(ptr noundef %0, ptr noundef %1) #0 {
  %3 = alloca ptr, align 8
  %4 = alloca ptr, align 8
  store ptr %0, ptr %3, align 8
  store ptr %1, ptr %4, align 8
  %5 = load ptr, ptr %3, align 8
  %6 = load ptr, ptr %4, align 8
  %7 = call zeroext i1 @_is_user_any_coord_internal(ptr noundef %5, ptr noundef %6, i1 noundef zeroext true)
  ret i1 %7
}