; Function Attrs: nounwind uwtable
define dso_local zeroext i1 @is_user_any_coord_locked(ptr noundef %0, ptr noundef %1) local_unnamed_addr #0 {
  %3 = tail call i32 @assoc_mgr_fill_in_user(ptr noundef %0, ptr noundef %1, i32 noundef 1, ptr noundef null, i1 noundef zeroext true) #12
  %.not.i = icmp eq i32 %3, 0
  br i1 %.not.i, label %10, label %4

4:                                                ; preds = %2
  %5 = getelementptr inbounds nuw i8, ptr %1, i64 56
  %6 = load ptr, ptr %5, align 8
  %7 = getelementptr inbounds nuw i8, ptr %1, i64 72
  %8 = load i32, ptr %7, align 8
  %9 = tail call i32 (ptr, ...) @slurm_error(ptr noundef nonnull @.str, ptr noundef %6, i32 noundef %8) #12
  br label %_is_user_any_coord_internal.exit

10:                                               ; preds = %2
  %11 = getelementptr inbounds nuw i8, ptr %1, i64 24
  %12 = load ptr, ptr %11, align 8
  %.not8.i = icmp eq ptr %12, null
  br i1 %.not8.i, label %_is_user_any_coord_internal.exit, label %13

13:                                               ; preds = %10
  %14 = tail call i32 @slurm_list_count(ptr noundef nonnull %12) #12
  %15 = icmp ne i32 %14, 0
  br label %_is_user_any_coord_internal.exit

_is_user_any_coord_internal.exit:                 ; preds = %4, %10, %13
  %.0.i = phi i1 [ false, %4 ], [ false, %10 ], [ %15, %13 ]
  ret i1 %.0.i
}